target datalayout = "e-m:e-p270:32:32-p271:32:32-p272:64:64-i64:64-i128:128-f80:128-n8:16:32:64-S128"
target triple = "x86_64-pc-linux-gnu"

%struct.ident_t = type { i32, i32, i32, i32, ptr }
%class.anon.133 = type { ptr }
%class.anon.135 = type { ptr, ptr }

@1 = private unnamed_addr constant %struct.ident_t { i32 0, i32 514, i32 0, i32 22, ptr @0 }, align 8

; Function Attrs: alwaysinline mustprogress nounwind
define internal ptr @memcpy.inline(ptr noalias nonnull %0, ptr noalias nonnull %1, i64 %2) #19 {
  %4 = alloca ptr, align 8
  %5 = alloca ptr, align 8
  %6 = alloca i64, align 8
  store ptr %0, ptr %4, align 8, !tbaa !40
  store ptr %1, ptr %5, align 8, !tbaa !40
  store i64 %2, ptr %6, align 8, !tbaa !13
  %7 = load ptr, ptr %4, align 8, !tbaa !40
  %8 = load ptr, ptr %5, align 8, !tbaa !40
  %9 = load i64, ptr %6, align 8, !tbaa !13
  %10 = load ptr, ptr %4, align 8, !tbaa !40
  %11 = call i64 @llvm.objectsize.i64.p0(ptr %10, i1 false, i1 true, i1 false)
  %12 = call ptr @__memcpy_chk(ptr noundef %7, ptr noundef %8, i64 noundef %9, i64 noundef %11) #26
  ret ptr %12
}

; Function Attrs: mustprogress nounwind ssp uwtable
define internal void @_ZN6open3d4core6kernelL26CPUCopyObjectElementKernelEPKvPvl(ptr noundef %0, ptr noundef %1, i64 noundef %2) #3 {
  %4 = alloca ptr, align 8
  %5 = alloca ptr, align 8
  %6 = alloca i64, align 8
  %7 = alloca ptr, align 8
  %8 = alloca ptr, align 8
  store ptr %0, ptr %4, align 8, !tbaa !40
  store ptr %1, ptr %5, align 8, !tbaa !40
  store i64 %2, ptr %6, align 8, !tbaa !13
  call void @llvm.lifetime.start.p0(i64 8, ptr %7) #26
  %9 = load ptr, ptr %4, align 8, !tbaa !40
  store ptr %9, ptr %7, align 8, !tbaa !56
  call void @llvm.lifetime.start.p0(i64 8, ptr %8) #26
  %10 = load ptr, ptr %5, align 8, !tbaa !40
  store ptr %10, ptr %8, align 8, !tbaa !56
  %11 = load ptr, ptr %8, align 8, !tbaa !56
  %12 = load ptr, ptr %7, align 8, !tbaa !56
  %13 = load i64, ptr %6, align 8, !tbaa !13
  %14 = call ptr @memcpy.inline(ptr noundef %11, ptr noundef %12, i64 noundef %13) #26
  call void @llvm.lifetime.end.p0(i64 8, ptr %8) #26
  call void @llvm.lifetime.end.p0(i64 8, ptr %7) #26
  ret void
}

; Function Attrs: inlinehint mustprogress nounwind ssp uwtable
define internal void @"_ZZN6open3d4core6kernel11IndexSetCPUERKNS0_6TensorERS2_RKSt6vectorIS2_SaIS2_EERKNS0_10SizeVectorESD_ENK3$_0clEPKvPv"(ptr noundef nonnull align 8 dereferenceable(8) %0, ptr noundef %1, ptr noundef %2) #2 align 2 {
  %4 = alloca ptr, align 8
  %5 = alloca ptr, align 8
  %6 = alloca ptr, align 8
  store ptr %0, ptr %4, align 8, !tbaa !40
  store ptr %1, ptr %5, align 8, !tbaa !40
  store ptr %2, ptr %6, align 8, !tbaa !40
  %7 = load ptr, ptr %4, align 8
  %8 = load ptr, ptr %5, align 8, !tbaa !40
  %9 = load ptr, ptr %6, align 8, !tbaa !40
  %10 = getelementptr inbounds nuw %class.anon.133, ptr %7, i32 0, i32 0
  %11 = load ptr, ptr %10, align 8, !tbaa !873
  %12 = load i64, ptr %11, align 8, !tbaa !13
  call void @_ZN6open3d4core6kernelL26CPUCopyObjectElementKernelEPKvPvl(ptr noundef %8, ptr noundef %9, i64 noundef %12)
  ret void
}

; Function Attrs: inlinehint mustprogress ssp uwtable
define internal void @"_ZZN6open3d4core6kernelL27LaunchAdvancedIndexerKernelIZNS1_11IndexSetCPUERKNS0_6TensorERS3_RKSt6vectorIS3_SaIS3_EERKNS0_10SizeVectorESE_E3$_0EEvRKNS0_15AdvancedIndexerERKT_ENKUllE_clEl"(ptr noundef nonnull align 8 dereferenceable(16) %0, i64 noundef %1) #4 align 2 {
  %3 = alloca ptr, align 8
  %4 = alloca i64, align 8
  store ptr %0, ptr %3, align 8, !tbaa !40
  store i64 %1, ptr %4, align 8, !tbaa !13
  %5 = load ptr, ptr %3, align 8
  %6 = getelementptr inbounds nuw %class.anon.135, ptr %5, i32 0, i32 1
  %7 = load ptr, ptr %6, align 8, !tbaa !870
  %8 = getelementptr inbounds nuw %class.anon.135, ptr %5, i32 0, i32 0
  %9 = load ptr, ptr %8, align 8, !tbaa !872
  %10 = load i64, ptr %4, align 8, !tbaa !13
  %11 = call noundef ptr @_ZNK6open3d4core15AdvancedIndexer11GetInputPtrEl(ptr noundef nonnull align 8 dereferenceable(952) %9, i64 noundef %10)
  %12 = getelementptr inbounds nuw %class.anon.135, ptr %5, i32 0, i32 0
  %13 = load ptr, ptr %12, align 8, !tbaa !872
  %14 = load i64, ptr %4, align 8, !tbaa !13
  %15 = call noundef ptr @_ZNK6open3d4core15AdvancedIndexer12GetOutputPtrEl(ptr noundef nonnull align 8 dereferenceable(952) %13, i64 noundef %14)
  call void @"_ZZN6open3d4core6kernel11IndexSetCPUERKNS0_6TensorERS2_RKSt6vectorIS2_SaIS2_EERKNS0_10SizeVectorESD_ENK3$_0clEPKvPv"(ptr noundef nonnull align 8 dereferenceable(8) %7, ptr noundef %11, ptr noundef %15)
  ret void
}

; Function Attrs: alwaysinline norecurse nounwind ssp uwtable
define internal void @"_ZN6open3d4core15ParallelForCPU_IZNS0_6kernelL27LaunchAdvancedIndexerKernelIZNS2_11IndexSetCPUERKNS0_6TensorERS4_RKSt6vectorIS4_SaIS4_EERKNS0_10SizeVectorESF_E3$_0EEvRKNS0_15AdvancedIndexerERKT_EUllE_EEvRKNS0_6DeviceElSM_.omp_outlined"(ptr noalias noundef %0, ptr noalias noundef %1, ptr noundef nonnull align 8 dereferenceable(8) %2, ptr noundef nonnull align 8 dereferenceable(16) %3) #25 personality ptr @__gxx_personality_v0 {
  %5 = alloca ptr, align 8
  %6 = alloca ptr, align 8
  %7 = alloca ptr, align 8
  %8 = alloca ptr, align 8
  %9 = alloca ptr, align 8
  %10 = alloca i64, align 8
  %11 = alloca i64, align 8
  %12 = alloca i64, align 8
  %13 = alloca i64, align 8
  %14 = alloca i64, align 8
  %15 = alloca i64, align 8
  %16 = alloca i64, align 8
  %17 = alloca i32, align 4
  %18 = alloca i64, align 8
  store ptr %0, ptr %5, align 8, !tbaa !223
  store ptr %1, ptr %6, align 8, !tbaa !223
  store ptr %2, ptr %7, align 8, !tbaa !15
  store ptr %3, ptr %8, align 8, !tbaa !40
  %19 = load ptr, ptr %7, align 8, !tbaa !15
  %20 = load ptr, ptr %8, align 8, !tbaa !40
  store ptr %20, ptr %9, align 8
  call void @llvm.lifetime.start.p0(i64 8, ptr %10) #26
  call void @llvm.lifetime.start.p0(i64 8, ptr %11) #26
  %21 = load i64, ptr %19, align 8, !tbaa !13
  store i64 %21, ptr %11, align 8, !tbaa !13
  call void @llvm.lifetime.start.p0(i64 8, ptr %12) #26
  %22 = load i64, ptr %11, align 8, !tbaa !13
  %23 = sub nsw i64 %22, 0
  %24 = sdiv i64 %23, 1
  %25 = sub nsw i64 %24, 1
  store i64 %25, ptr %12, align 8, !tbaa !13
  call void @llvm.lifetime.start.p0(i64 8, ptr %13) #26
  store i64 0, ptr %13, align 8, !tbaa !13
  call void @llvm.lifetime.end.p0(i64 8, ptr %13) #26
  %26 = load i64, ptr %11, align 8, !tbaa !13
  %27 = icmp slt i64 0, %26
  br i1 %27, label %28, label %62

28:                                               ; preds = %4
  call void @llvm.lifetime.start.p0(i64 8, ptr %14) #26
  store i64 0, ptr %14, align 8, !tbaa !13
  call void @llvm.lifetime.start.p0(i64 8, ptr %15) #26
  %29 = load i64, ptr %12, align 8, !tbaa !13
  store i64 %29, ptr %15, align 8, !tbaa !13
  call void @llvm.lifetime.start.p0(i64 8, ptr %16) #26
  store i64 1, ptr %16, align 8, !tbaa !13
  call void @llvm.lifetime.start.p0(i64 4, ptr %17) #26
  store i32 0, ptr %17, align 4, !tbaa !58
  call void @llvm.lifetime.start.p0(i64 8, ptr %18) #26
  %30 = load ptr, ptr %5, align 8
  %31 = load i32, ptr %30, align 4, !tbaa !58
  call void @__kmpc_for_static_init_8(ptr @1, i32 %31, i32 34, ptr %17, ptr %14, ptr %15, ptr %16, i64 1, i64 1)
  %32 = load i64, ptr %15, align 8, !tbaa !13
  %33 = load i64, ptr %12, align 8, !tbaa !13
  %34 = icmp sgt i64 %32, %33
  br i1 %34, label %35, label %37

35:                                               ; preds = %28
  %36 = load i64, ptr %12, align 8, !tbaa !13
  br label %39

37:                                               ; preds = %28
  %38 = load i64, ptr %15, align 8, !tbaa !13
  br label %39

39:                                               ; preds = %37, %35
  %40 = phi i64 [ %36, %35 ], [ %38, %37 ]
  store i64 %40, ptr %15, align 8, !tbaa !13
  %41 = load i64, ptr %14, align 8, !tbaa !13
  store i64 %41, ptr %10, align 8, !tbaa !13
  br label %42

42:                                               ; preds = %55, %39
  %43 = load i64, ptr %10, align 8, !tbaa !13
  %44 = load i64, ptr %15, align 8, !tbaa !13
  %45 = icmp sle i64 %43, %44
  br i1 %45, label %47, label %46

46:                                               ; preds = %42
  br label %58

47:                                               ; preds = %42
  %48 = load i64, ptr %10, align 8, !tbaa !13
  %49 = mul nsw i64 %48, 1
  %50 = add nsw i64 0, %49
  store i64 %50, ptr %18, align 8, !tbaa !13
  %51 = load ptr, ptr %9, align 8, !tbaa !40
  %52 = load i64, ptr %18, align 8, !tbaa !13
  invoke void @"_ZZN6open3d4core6kernelL27LaunchAdvancedIndexerKernelIZNS1_11IndexSetCPUERKNS0_6TensorERS3_RKSt6vectorIS3_SaIS3_EERKNS0_10SizeVectorESE_E3$_0EEvRKNS0_15AdvancedIndexerERKT_ENKUllE_clEl"(ptr noundef nonnull align 8 dereferenceable(16) %51, i64 noundef %52)
          to label %53 unwind label %63

53:                                               ; preds = %47
  br label %54

54:                                               ; preds = %53
  br label %55

55:                                               ; preds = %54
  %56 = load i64, ptr %10, align 8, !tbaa !13
  %57 = add nsw i64 %56, 1
  store i64 %57, ptr %10, align 8, !tbaa !13
  br label %42

58:                                               ; preds = %46
  br label %59

59:                                               ; preds = %58
  %60 = load ptr, ptr %5, align 8
  %61 = load i32, ptr %60, align 4, !tbaa !58
  call void @__kmpc_for_static_fini(ptr @1, i32 %61)
  call void @llvm.lifetime.end.p0(i64 8, ptr %18) #26
  call void @llvm.lifetime.end.p0(i64 4, ptr %17) #26
  call void @llvm.lifetime.end.p0(i64 8, ptr %16) #26
  call void @llvm.lifetime.end.p0(i64 8, ptr %15) #26
  call void @llvm.lifetime.end.p0(i64 8, ptr %14) #26
  br label %62

62:                                               ; preds = %59, %4
  call void @llvm.lifetime.end.p0(i64 8, ptr %12) #26
  call void @llvm.lifetime.end.p0(i64 8, ptr %11) #26
  call void @llvm.lifetime.end.p0(i64 8, ptr %10) #26
  ret void

63:                                               ; preds = %47
  %64 = landingpad { ptr, i32 }
          catch ptr null
  %65 = extractvalue { ptr, i32 } %64, 0
  call void @__clang_call_terminate(ptr %65) #29
  unreachable
}